; Function Attrs: mustprogress nofree norecurse nounwind willreturn uwtable
define dso_local void @_ZNK4node22CommonEnvironmentSetup22array_buffer_allocatorEv(ptr noalias nocapture writeonly sret(%"class.std::shared_ptr.262") align 8 %agg.result, ptr nocapture noundef nonnull readonly align 8 dereferenceable(8) %this) local_unnamed_addr #11 align 2 {
entry:
  %0 = load ptr, ptr %this, align 8
  %allocator = getelementptr inbounds i8, ptr %0, i64 856
  %1 = load ptr, ptr %allocator, align 8
  store ptr %1, ptr %agg.result, align 8
  %_M_refcount.i.i = getelementptr inbounds i8, ptr %agg.result, i64 8
  %_M_refcount3.i.i = getelementptr inbounds i8, ptr %0, i64 864
  %2 = load ptr, ptr %_M_refcount3.i.i, align 8
  store ptr %2, ptr %_M_refcount.i.i, align 8
  %cmp.not.i.i.i = icmp eq ptr %2, null
  br i1 %cmp.not.i.i.i, label %_ZNSt10shared_ptrIN4node20ArrayBufferAllocatorEEC2ERKS2_.exit, label %if.then.i.i.i

if.then.i.i.i:                                    ; preds = %entry
  %_M_use_count.i.i.i.i = getelementptr inbounds i8, ptr %2, i64 8
  %3 = load i8, ptr @__libc_single_threaded, align 1
  %tobool.i.not.i.i.i.i = icmp eq i8 %3, 0
  br i1 %tobool.i.not.i.i.i.i, label %if.else.i.i.i.i.i, label %if.then.i.i.i.i.i

if.then.i.i.i.i.i:                                ; preds = %if.then.i.i.i
  %4 = load i32, ptr %_M_use_count.i.i.i.i, align 4
  %add.i.i.i.i.i = add nsw i32 %4, 1
  store i32 %add.i.i.i.i.i, ptr %_M_use_count.i.i.i.i, align 4
  br label %_ZNSt10shared_ptrIN4node20ArrayBufferAllocatorEEC2ERKS2_.exit

if.else.i.i.i.i.i:                                ; preds = %if.then.i.i.i
  %5 = atomicrmw volatile add ptr %_M_use_count.i.i.i.i, i32 1 acq_rel, align 4
  br label %_ZNSt10shared_ptrIN4node20ArrayBufferAllocatorEEC2ERKS2_.exit

_ZNSt10shared_ptrIN4node20ArrayBufferAllocatorEEC2ERKS2_.exit: ; preds = %entry, %if.then.i.i.i.i.i, %if.else.i.i.i.i.i
  ret void
}